; Function Attrs: mustprogress nounwind uwtable
define void @_ZN4base30LocalPersistentMemoryAllocatorD2Ev(ptr noundef nonnull align 8 captures(none) dereferenceable(48) initializes((0, 8)) %0) unnamed_addr #8 align 2 personality ptr @__gxx_personality_v0 {
  store ptr getelementptr inbounds nuw inrange(-16, 16) (i8, ptr @_ZTVN4base30LocalPersistentMemoryAllocatorE, i64 16), ptr %0, align 8, !tbaa !30
  %2 = getelementptr inbounds nuw i8, ptr %0, i64 8
  %3 = load ptr, ptr %2, align 8, !tbaa !20
  %4 = getelementptr inbounds nuw i8, ptr %0, i64 16
  %5 = load i32, ptr %4, align 8, !tbaa !13
  %6 = zext i32 %5 to i64
  %7 = tail call i32 @munmap(ptr noundef %3, i64 noundef %6) #18
  ret void
}